target datalayout = "e-m:e-p270:32:32-p271:32:32-p272:64:64-i64:64-i128:128-f80:128-n8:16:32:64-S128"
target triple = "x86_64-pc-linux-gnu"

%struct.CastContext = type { ptr, ptr, ptr, ptr, ptr, i32, i32 }
%struct.Expr_ = type { ptr, %union.SourceSpan, i16, %union.anon.29 }
%union.SourceSpan = type { i64 }
%union.anon.29 = type { %struct.ExprAnySwitch }
%struct.ExprAnySwitch = type { i8, %union.anon.31 }
%union.anon.31 = type { %struct.anon.32 }
%struct.anon.32 = type { ptr, %union.SourceSpan, ptr }
%struct.Type_ = type { i32, ptr, ptr, ptr, %union.anon.85, ptr, ptr, %union.anon.87 }
%union.anon.85 = type { ptr }
%union.anon.87 = type { %struct.TypeFunction }
%struct.TypeFunction = type { ptr, ptr, ptr }
%struct.Decl_ = type { ptr, ptr, %union.SourceSpan, i64, %union.anon, i32, %union.anon.0, i64, ptr, ptr, ptr, %union.anon.1 }
%union.anon = type { ptr }
%union.anon.0 = type { i16 }
%union.anon.1 = type { %struct.FuncDecl }
%struct.FuncDecl = type { i32, [4 x i8], %struct.Signature_, i32, i32, %union.anon.8 }
%struct.Signature_ = type <{ %struct.CalleeAttributes, i16, i8, i32, i32, [4 x i8], ptr }>
%struct.CalleeAttributes = type { i8 }
%union.anon.8 = type { %struct.anon.9 }
%struct.anon.9 = type { i16, %union.anon.10 }
%union.anon.10 = type { ptr }
%struct.anon.2 = type { ptr, ptr, %union.anon.3 }
%union.anon.3 = type { %struct.BitStructDecl }
%struct.BitStructDecl = type { ptr, ptr, i8 }
%struct.TypeInfo_ = type { i16, ptr, %union.SourceSpan, %union.anon.56 }
%union.anon.56 = type { %struct.anon.57 }
%struct.anon.57 = type { ptr, ptr }

@.str.2 = private unnamed_addr constant [36 x i8] c"FATAL ERROR %s -> in %s @ in %s:%d \00", align 1
@.str.3 = private unnamed_addr constant [22 x i8] c"Should be unreachable\00", align 1
@.str.9 = private unnamed_addr constant [26 x i8] c"You cannot cast %s to %s.\00", align 1
@__func__.type_flatten = private unnamed_addr constant [13 x i8] c"type_flatten\00", align 1
@.str.10 = private unnamed_addr constant [118 x i8] c"generated/home/dtcxzyw/WorkSpace/Projects/compilers/llvm-opt-benchmark/bench/c3c/c3c/src/compiler/compiler_internal.h\00", align 1
@type_voidptr = external global ptr, align 8

; Function Attrs: nounwind uwtable
define internal zeroext i1 @cast_is_allowed(ptr noundef %0, i1 noundef zeroext %1, i1 noundef zeroext %2) #0 {
  %4 = alloca i1, align 1
  %5 = alloca ptr, align 8
  %6 = alloca i8, align 1
  %7 = alloca i8, align 1
  %8 = alloca ptr, align 8
  %9 = alloca i32, align 4
  %10 = alloca i32, align 4
  %11 = alloca ptr, align 8
  store ptr %0, ptr %5, align 8
  %12 = zext i1 %1 to i8
  store i8 %12, ptr %6, align 1
  %13 = zext i1 %2 to i8
  store i8 %13, ptr %7, align 1
  %14 = load ptr, ptr %5, align 8
  %15 = getelementptr inbounds %struct.CastContext, ptr %14, i32 0, i32 2
  %16 = load ptr, ptr %15, align 8
  store ptr %16, ptr %8, align 8
  %17 = load ptr, ptr %8, align 8
  %18 = getelementptr inbounds %struct.Type_, ptr %17, i32 0, i32 1
  %19 = load ptr, ptr %18, align 8
  store ptr %19, ptr %8, align 8
  %20 = load ptr, ptr %8, align 8
  %21 = load ptr, ptr %5, align 8
  %22 = getelementptr inbounds %struct.CastContext, ptr %21, i32 0, i32 4
  %23 = load ptr, ptr %22, align 8
  %24 = icmp eq ptr %20, %23
  br i1 %24, label %25, label %26

25:                                               ; preds = %3
  store i1 true, ptr %4, align 1
  br label %80

26:                                               ; preds = %3
  %27 = load ptr, ptr %5, align 8
  %28 = getelementptr inbounds %struct.CastContext, ptr %27, i32 0, i32 5
  %29 = load i32, ptr %28, align 8
  store i32 %29, ptr %9, align 4
  %30 = load ptr, ptr %5, align 8
  %31 = getelementptr inbounds %struct.CastContext, ptr %30, i32 0, i32 6
  %32 = load i32, ptr %31, align 4
  store i32 %32, ptr %10, align 4
  %33 = load i32, ptr %9, align 4
  %34 = icmp eq i32 %33, -1
  br i1 %34, label %38, label %35

35:                                               ; preds = %26
  %36 = load i32, ptr %10, align 4
  %37 = icmp eq i32 %36, -1
  br i1 %37, label %38, label %39

38:                                               ; preds = %35, %26
  br label %47

39:                                               ; preds = %35
  %40 = load i32, ptr %9, align 4
  %41 = sext i32 %40 to i64
  %42 = getelementptr inbounds [23 x [23 x ptr]], ptr @cast_rules, i64 0, i64 %41
  %43 = load i32, ptr %10, align 4
  %44 = sext i32 %43 to i64
  %45 = getelementptr inbounds [23 x ptr], ptr %42, i64 0, i64 %44
  %46 = load ptr, ptr %45, align 8
  br label %47

47:                                               ; preds = %39, %38
  %48 = phi ptr [ null, %38 ], [ %46, %39 ]
  store ptr %48, ptr %11, align 8
  %49 = load ptr, ptr %11, align 8
  %50 = icmp ne ptr %49, null
  br i1 %50, label %72, label %51

51:                                               ; preds = %47
  %52 = load i8, ptr %7, align 1
  %53 = trunc i8 %52 to i1
  br i1 %53, label %71, label %54

54:                                               ; preds = %51
  %55 = load ptr, ptr %5, align 8
  %56 = getelementptr inbounds %struct.CastContext, ptr %55, i32 0, i32 1
  %57 = load ptr, ptr %56, align 8
  %58 = getelementptr inbounds %struct.Expr_, ptr %57, i32 0, i32 1
  %59 = load ptr, ptr %5, align 8
  %60 = getelementptr inbounds %struct.CastContext, ptr %59, i32 0, i32 1
  %61 = load ptr, ptr %60, align 8
  %62 = getelementptr inbounds %struct.Expr_, ptr %61, i32 0, i32 0
  %63 = load ptr, ptr %62, align 8
  %64 = call ptr @type_quoted_error_string(ptr noundef %63)
  %65 = load ptr, ptr %5, align 8
  %66 = getelementptr inbounds %struct.CastContext, ptr %65, i32 0, i32 3
  %67 = load ptr, ptr %66, align 8
  %68 = call ptr @type_quoted_error_string(ptr noundef %67)
  %69 = getelementptr inbounds %union.SourceSpan, ptr %58, i32 0, i32 0
  %70 = load i64, ptr %69, align 8
  call void (i64, ptr, ...) @sema_error_at(i64 %70, ptr noundef @.str.9, ptr noundef %64, ptr noundef %68)
  br label %71

71:                                               ; preds = %54, %51
  store i1 false, ptr %4, align 1
  br label %80

72:                                               ; preds = %47
  %73 = load ptr, ptr %11, align 8
  %74 = load ptr, ptr %5, align 8
  %75 = load i8, ptr %6, align 1
  %76 = trunc i8 %75 to i1
  %77 = load i8, ptr %7, align 1
  %78 = trunc i8 %77 to i1
  %79 = call zeroext i1 %73(ptr noundef %74, i1 noundef zeroext %76, i1 noundef zeroext %78)
  store i1 %79, ptr %4, align 1
  br label %80

80:                                               ; preds = %72, %71, %25
  %81 = load i1, ptr %4, align 1
  ret i1 %81
}

; Function Attrs: nounwind uwtable
define internal ptr @type_flatten(ptr noundef %0) #0 {
  %2 = alloca ptr, align 8
  store ptr %0, ptr %2, align 8
  br label %3

3:                                                ; preds = %28, %1
  %4 = load ptr, ptr %2, align 8
  %5 = getelementptr inbounds %struct.Type_, ptr %4, i32 0, i32 1
  %6 = load ptr, ptr %5, align 8
  store ptr %6, ptr %2, align 8
  %7 = load ptr, ptr %2, align 8
  %8 = getelementptr inbounds %struct.Type_, ptr %7, i32 0, i32 0
  %9 = load i32, ptr %8, align 8
  switch i32 %9, label %26 [
    i32 32, label %10
    i32 40, label %19
    i32 31, label %23
  ]

10:                                               ; preds = %3
  %11 = load ptr, ptr %2, align 8
  %12 = getelementptr inbounds %struct.Type_, ptr %11, i32 0, i32 7
  %13 = load ptr, ptr %12, align 8
  %14 = getelementptr inbounds %struct.Decl_, ptr %13, i32 0, i32 11
  %15 = getelementptr inbounds %struct.anon.2, ptr %14, i32 0, i32 2
  %16 = load ptr, ptr %15, align 8
  %17 = getelementptr inbounds %struct.TypeInfo_, ptr %16, i32 0, i32 1
  %18 = load ptr, ptr %17, align 8
  store ptr %18, ptr %2, align 8
  br label %28

19:                                               ; preds = %3
  %20 = load ptr, ptr %2, align 8
  %21 = getelementptr inbounds %struct.Type_, ptr %20, i32 0, i32 7
  %22 = load ptr, ptr %21, align 8
  store ptr %22, ptr %2, align 8
  br label %28

23:                                               ; preds = %3
  br label %24

24:                                               ; preds = %23
  call void (ptr, ...) @error_exit(ptr noundef @.str.2, ptr noundef @.str.3, ptr noundef @__func__.type_flatten, ptr noundef @.str.10, i32 noundef 2984) #6
  unreachable

25:                                               ; No predecessors!
  br label %26

26:                                               ; preds = %25, %3
  %27 = load ptr, ptr %2, align 8
  ret ptr %27

28:                                               ; preds = %19, %10
  br label %3
}

; Function Attrs: nounwind uwtable
define internal zeroext i1 @rule_from_distinct(ptr noundef %0, i1 noundef zeroext %1, i1 noundef zeroext %2) #0 {
  %4 = alloca i1, align 1
  %5 = alloca ptr, align 8
  %6 = alloca i32, align 4
  %7 = alloca i32, align 4
  %8 = alloca ptr, align 8
  %9 = alloca ptr, align 8
  %10 = alloca ptr, align 8
  %11 = alloca i1, align 1
  %12 = alloca ptr, align 8
  %13 = alloca i8, align 1
  %14 = alloca i8, align 1
  %15 = alloca i1, align 1
  %16 = alloca ptr, align 8
  %17 = alloca i8, align 1
  %18 = alloca i8, align 1
  %19 = alloca ptr, align 8
  %20 = alloca i8, align 1
  store ptr %0, ptr %16, align 8
  %21 = zext i1 %1 to i8
  store i8 %21, ptr %17, align 1
  %22 = zext i1 %2 to i8
  store i8 %22, ptr %18, align 1
  %23 = load ptr, ptr %16, align 8
  %24 = getelementptr inbounds %struct.CastContext, ptr %23, i32 0, i32 2
  %25 = load ptr, ptr %24, align 8
  store ptr %25, ptr %19, align 8
  %26 = load i8, ptr %17, align 1
  %27 = trunc i8 %26 to i1
  br i1 %27, label %62, label %28

28:                                               ; preds = %3
  %29 = load ptr, ptr %19, align 8
  %30 = getelementptr inbounds %struct.Type_, ptr %29, i32 0, i32 7
  %31 = load ptr, ptr %30, align 8
  %32 = getelementptr inbounds %struct.Decl_, ptr %31, i32 0, i32 3
  %33 = load i64, ptr %32, align 8
  %34 = lshr i64 %33, 15
  %35 = and i64 %34, 1
  %36 = trunc i64 %35 to i1
  br i1 %36, label %62, label %37

37:                                               ; preds = %28
  %38 = load i8, ptr %18, align 1
  %39 = trunc i8 %38 to i1
  br i1 %39, label %40, label %41

40:                                               ; preds = %37
  store i1 false, ptr %15, align 1
  br label %149

41:                                               ; preds = %37
  %42 = load ptr, ptr %16, align 8
  %43 = load i8, ptr %17, align 1
  %44 = trunc i8 %43 to i1
  %45 = call zeroext i1 @rule_from_distinct(ptr noundef %42, i1 noundef zeroext %44, i1 noundef zeroext true)
  %46 = zext i1 %45 to i8
  store i8 %46, ptr %20, align 1
  %47 = load ptr, ptr %16, align 8
  %48 = load i8, ptr %20, align 1
  %49 = trunc i8 %48 to i1
  %50 = load i8, ptr %18, align 1
  %51 = trunc i8 %50 to i1
  store ptr %47, ptr %12, align 8
  %52 = zext i1 %49 to i8
  store i8 %52, ptr %13, align 1
  %53 = zext i1 %51 to i8
  store i8 %53, ptr %14, align 1
  %54 = load i8, ptr %14, align 1
  %55 = trunc i8 %54 to i1
  br i1 %55, label %56, label %57

56:                                               ; preds = %41
  store i1 false, ptr %11, align 1
  br label %61

57:                                               ; preds = %41
  %58 = load ptr, ptr %12, align 8
  %59 = load i8, ptr %13, align 1
  %60 = trunc i8 %59 to i1
  call void @report_cast_error(ptr noundef %58, i1 noundef zeroext %60)
  store i1 false, ptr %11, align 1
  br label %61

61:                                               ; preds = %57, %56
  br label %62

62:                                               ; preds = %61, %28, %3
  %63 = load ptr, ptr %16, align 8
  %64 = load ptr, ptr %19, align 8
  %65 = call ptr @type_flatten(ptr noundef %64)
  store ptr %63, ptr %9, align 8
  store ptr %65, ptr %10, align 8
  %66 = load ptr, ptr %10, align 8
  %67 = load ptr, ptr %9, align 8
  %68 = getelementptr inbounds %struct.CastContext, ptr %67, i32 0, i32 2
  store ptr %66, ptr %68, align 8
  store ptr %66, ptr %8, align 8
  %69 = load ptr, ptr %8, align 8
  %70 = getelementptr inbounds %struct.Type_, ptr %69, i32 0, i32 1
  %71 = load ptr, ptr %70, align 8
  store ptr %71, ptr %8, align 8
  %72 = load ptr, ptr %8, align 8
  %73 = load ptr, ptr @type_voidptr, align 8
  %74 = icmp eq ptr %72, %73
  br i1 %74, label %75, label %76

75:                                               ; preds = %62
  store i32 19, ptr %7, align 4
  br label %139

76:                                               ; preds = %62
  %77 = load ptr, ptr %8, align 8
  %78 = load i32, ptr %77, align 8
  %79 = icmp eq i32 %78, 23
  br i1 %79, label %80, label %93

80:                                               ; preds = %76
  %81 = load ptr, ptr %8, align 8
  %82 = getelementptr inbounds %struct.Type_, ptr %81, i32 0, i32 7
  %83 = load ptr, ptr %82, align 8
  %84 = load i32, ptr %83, align 8
  %85 = icmp eq i32 %84, 33
  br i1 %85, label %92, label %86

86:                                               ; preds = %80
  %87 = load ptr, ptr %8, align 8
  %88 = getelementptr inbounds %struct.Type_, ptr %87, i32 0, i32 7
  %89 = load ptr, ptr %88, align 8
  %90 = load i32, ptr %89, align 8
  %91 = icmp eq i32 %90, 37
  br i1 %91, label %92, label %93

92:                                               ; preds = %86, %80
  store i32 20, ptr %7, align 4
  br label %139

93:                                               ; preds = %86, %76
  %94 = load ptr, ptr %8, align 8
  store ptr %94, ptr %5, align 8
  %95 = load ptr, ptr %5, align 8
  %96 = icmp ne ptr %95, null
  br i1 %96, label %98, label %97

97:                                               ; preds = %93
  store i1 true, ptr %4, align 1
  br label %130

98:                                               ; preds = %93
  %99 = load ptr, ptr %5, align 8
  %100 = load i32, ptr %99, align 8
  store i32 %100, ptr %6, align 4
  %101 = load i32, ptr %6, align 4
  %102 = icmp eq i32 %101, 31
  br i1 %102, label %103, label %108

103:                                              ; preds = %98
  %104 = load ptr, ptr %5, align 8
  %105 = getelementptr inbounds %struct.Type_, ptr %104, i32 0, i32 1
  %106 = load ptr, ptr %105, align 8
  %107 = load i32, ptr %106, align 8
  store i32 %107, ptr %6, align 4
  br label %108

108:                                              ; preds = %103, %98
  br label %109

109:                                              ; preds = %125, %120, %116, %112, %108
  %110 = load ptr, ptr %5, align 8
  %111 = load i32, ptr %110, align 8
  switch i32 %111, label %129 [
    i32 31, label %112
    i32 40, label %116
    i32 33, label %120
    i32 34, label %120
    i32 35, label %120
    i32 37, label %120
    i32 36, label %124
    i32 38, label %124
    i32 23, label %125
  ]

112:                                              ; preds = %109
  %113 = load ptr, ptr %5, align 8
  %114 = getelementptr inbounds %struct.Type_, ptr %113, i32 0, i32 1
  %115 = load ptr, ptr %114, align 8
  store ptr %115, ptr %5, align 8
  br label %109

116:                                              ; preds = %109
  %117 = load ptr, ptr %5, align 8
  %118 = getelementptr inbounds %struct.Type_, ptr %117, i32 0, i32 7
  %119 = load ptr, ptr %118, align 8
  store ptr %119, ptr %5, align 8
  br label %109

120:                                              ; preds = %109, %109, %109, %109
  %121 = load ptr, ptr %5, align 8
  %122 = getelementptr inbounds %struct.Type_, ptr %121, i32 0, i32 7
  %123 = load ptr, ptr %122, align 8
  store ptr %123, ptr %5, align 8
  br label %109

124:                                              ; preds = %109, %109
  store i1 true, ptr %4, align 1
  br label %130

125:                                              ; preds = %109
  %126 = load ptr, ptr %5, align 8
  %127 = getelementptr inbounds %struct.Type_, ptr %126, i32 0, i32 7
  %128 = load ptr, ptr %127, align 8
  store ptr %128, ptr %5, align 8
  br label %109

129:                                              ; preds = %109
  store i1 false, ptr %4, align 1
  br label %130

130:                                              ; preds = %129, %124, %97
  %131 = load i1, ptr %4, align 1
  br i1 %131, label %132, label %133

132:                                              ; preds = %130
  store i32 21, ptr %7, align 4
  br label %139

133:                                              ; preds = %130
  %134 = load ptr, ptr %8, align 8
  %135 = load i32, ptr %134, align 8
  %136 = zext i32 %135 to i64
  %137 = getelementptr inbounds [44 x i32], ptr @group_from_type, i64 0, i64 %136
  %138 = load i32, ptr %137, align 4
  store i32 %138, ptr %7, align 4
  br label %139

139:                                              ; preds = %133, %132, %92, %75
  %140 = load i32, ptr %7, align 4
  %141 = load ptr, ptr %9, align 8
  %142 = getelementptr inbounds %struct.CastContext, ptr %141, i32 0, i32 5
  store i32 %140, ptr %142, align 8
  %143 = load ptr, ptr %16, align 8
  %144 = load i8, ptr %17, align 1
  %145 = trunc i8 %144 to i1
  %146 = load i8, ptr %18, align 1
  %147 = trunc i8 %146 to i1
  %148 = call zeroext i1 @cast_is_allowed(ptr noundef %143, i1 noundef zeroext %145, i1 noundef zeroext %147)
  store i1 %148, ptr %15, align 1
  br label %149

149:                                              ; preds = %139, %40
  %150 = load i1, ptr %15, align 1
  ret i1 %150
}