; Function Attrs: nounwind uwtable
define internal zeroext i1 @rule_from_distinct(ptr noundef %0, i1 noundef zeroext %1, i1 noundef zeroext %2) #0 {
  %4 = getelementptr inbounds i8, ptr %0, i64 16
  %5 = load ptr, ptr %4, align 8
  br i1 %1, label %.preheader51, label %6

6:                                                ; preds = %3
  %7 = getelementptr inbounds i8, ptr %5, i64 56
  %8 = load ptr, ptr %7, align 8
  %9 = getelementptr inbounds i8, ptr %8, i64 24
  %10 = load i64, ptr %9, align 8
  %11 = and i64 %10, 32768
  %.not = icmp eq i64 %11, 0
  br i1 %.not, label %12, label %.preheader51

12:                                               ; preds = %6
  br i1 %2, label %cast_is_allowed.exit, label %13

13:                                               ; preds = %12
  %14 = tail call zeroext i1 @rule_from_distinct(ptr noundef nonnull %0, i1 noundef zeroext false, i1 noundef zeroext true)
  %15 = getelementptr i8, ptr %0, i64 8
  %.val = load ptr, ptr %15, align 8
  %16 = getelementptr i8, ptr %0, i64 24
  %.val45 = load ptr, ptr %16, align 8
  tail call fastcc void @report_cast_error(ptr %.val, ptr %.val45, i1 noundef zeroext %14)
  br label %.preheader51

.preheader51:                                     ; preds = %13, %6, %3
  br label %17

17:                                               ; preds = %.preheader51, %30
  %.0.i = phi ptr [ %.1.i, %30 ], [ %5, %.preheader51 ]
  %18 = getelementptr inbounds i8, ptr %.0.i, i64 8
  %19 = load ptr, ptr %18, align 8
  %20 = load i32, ptr %19, align 8
  switch i32 %20, label %type_flatten.exit [
    i32 32, label %21
    i32 40, label %27
    i32 31, label %29
  ]

21:                                               ; preds = %17
  %22 = getelementptr inbounds i8, ptr %19, i64 56
  %23 = load ptr, ptr %22, align 8
  %24 = getelementptr inbounds i8, ptr %23, i64 96
  %25 = load ptr, ptr %24, align 8
  %26 = getelementptr inbounds i8, ptr %25, i64 8
  br label %30

27:                                               ; preds = %17
  %28 = getelementptr inbounds i8, ptr %19, i64 56
  br label %30

29:                                               ; preds = %17
  tail call void (ptr, ...) @error_exit(ptr noundef nonnull @.str.2, ptr noundef nonnull @.str.3, ptr noundef nonnull @__func__.type_flatten, ptr noundef nonnull @.str.10, i32 noundef 2984) #11
  unreachable

30:                                               ; preds = %27, %21
  %.1.in.i = phi ptr [ %28, %27 ], [ %26, %21 ]
  %.1.i = load ptr, ptr %.1.in.i, align 8
  br label %17

type_flatten.exit:                                ; preds = %17
  store ptr %19, ptr %4, align 8
  %31 = getelementptr inbounds i8, ptr %19, i64 8
  %32 = load ptr, ptr %31, align 8
  %33 = load ptr, ptr @type_voidptr, align 8
  %34 = icmp eq ptr %32, %33
  br i1 %34, label %.loopexit, label %35

35:                                               ; preds = %type_flatten.exit
  %36 = load i32, ptr %32, align 8
  %37 = icmp eq i32 %36, 23
  br i1 %37, label %38, label %.preheader

38:                                               ; preds = %35
  %39 = getelementptr inbounds i8, ptr %32, i64 56
  %40 = load ptr, ptr %39, align 8
  %41 = load i32, ptr %40, align 8
  switch i32 %41, label %.preheader [
    i32 33, label %.loopexit
    i32 37, label %.loopexit
  ]

.preheader:                                       ; preds = %35, %38
  br label %42

42:                                               ; preds = %.preheader, %.backedge
  %43 = phi i32 [ %.pre, %.backedge ], [ %36, %.preheader ]
  %.038 = phi ptr [ %.038.be, %.backedge ], [ %32, %.preheader ]
  switch i32 %43, label %.critedge [
    i32 31, label %44
    i32 40, label %.backedge
    i32 33, label %.backedge
    i32 34, label %.backedge
    i32 35, label %.backedge
    i32 37, label %.backedge
    i32 36, label %.loopexit
    i32 38, label %.loopexit
    i32 23, label %.backedge
  ]

44:                                               ; preds = %42
  br label %.backedge

.backedge:                                        ; preds = %42, %42, %42, %42, %42, %42, %44
  %.sink = phi i64 [ 8, %44 ], [ 56, %42 ], [ 56, %42 ], [ 56, %42 ], [ 56, %42 ], [ 56, %42 ], [ 56, %42 ]
  %45 = getelementptr inbounds i8, ptr %.038, i64 %.sink
  %.038.be = load ptr, ptr %45, align 8
  %.pre = load i32, ptr %.038.be, align 8
  br label %42

.critedge:                                        ; preds = %42
  %46 = zext i32 %36 to i64
  %47 = getelementptr inbounds [44 x i32], ptr @group_from_type, i64 0, i64 %46
  %48 = load i32, ptr %47, align 4
  br label %.loopexit

.loopexit:                                        ; preds = %42, %42, %38, %38, %type_flatten.exit, %.critedge
  %.039 = phi i32 [ %48, %.critedge ], [ 19, %type_flatten.exit ], [ 20, %38 ], [ 20, %38 ], [ 21, %42 ], [ 21, %42 ]
  %49 = getelementptr inbounds i8, ptr %0, i64 40
  store i32 %.039, ptr %49, align 8
  %50 = load ptr, ptr %31, align 8
  %51 = getelementptr inbounds i8, ptr %0, i64 32
  %52 = load ptr, ptr %51, align 8
  %53 = icmp eq ptr %50, %52
  br i1 %53, label %cast_is_allowed.exit, label %54

54:                                               ; preds = %.loopexit
  %55 = getelementptr inbounds i8, ptr %0, i64 44
  %56 = load i32, ptr %55, align 4
  %57 = icmp eq i32 %.039, -1
  %58 = icmp eq i32 %56, -1
  %or.cond.i = select i1 %57, i1 true, i1 %58
  br i1 %or.cond.i, label %.thread.i, label %59

59:                                               ; preds = %54
  %60 = sext i32 %.039 to i64
  %61 = sext i32 %56 to i64
  %62 = getelementptr inbounds [23 x [23 x ptr]], ptr @cast_rules, i64 0, i64 %60, i64 %61
  %63 = load ptr, ptr %62, align 8
  %.not.i = icmp eq ptr %63, null
  br i1 %.not.i, label %.thread.i, label %74

.thread.i:                                        ; preds = %59, %54
  br i1 %2, label %cast_is_allowed.exit, label %64

64:                                               ; preds = %.thread.i
  %65 = getelementptr inbounds i8, ptr %0, i64 8
  %66 = load ptr, ptr %65, align 8
  %67 = getelementptr inbounds i8, ptr %66, i64 8
  %68 = load ptr, ptr %66, align 8
  %69 = tail call ptr @type_quoted_error_string(ptr noundef %68) #10
  %70 = getelementptr inbounds i8, ptr %0, i64 24
  %71 = load ptr, ptr %70, align 8
  %72 = tail call ptr @type_quoted_error_string(ptr noundef %71) #10
  %73 = load i64, ptr %67, align 8
  tail call void (i64, ptr, ...) @sema_error_at(i64 %73, ptr noundef nonnull @.str.9, ptr noundef %69, ptr noundef %72) #10
  br label %cast_is_allowed.exit

74:                                               ; preds = %59
  %75 = tail call zeroext i1 %63(ptr noundef nonnull %0, i1 noundef zeroext %1, i1 noundef zeroext %2) #10
  br label %cast_is_allowed.exit

cast_is_allowed.exit:                             ; preds = %74, %64, %.thread.i, %.loopexit, %12
  %.040 = phi i1 [ false, %12 ], [ %75, %74 ], [ true, %.loopexit ], [ false, %64 ], [ false, %.thread.i ]
  ret i1 %.040
}